	.file	"Bubble_Sort.cpp"
	.text
#APP
	.globl _ZSt21ios_base_library_initv
#NO_APP
	.section	.text._ZNSt6chrono8durationIlSt5ratioILl1ELl1000000000EEEC1IlvEERKT_,"axG",@progbits,_ZNSt6chrono8durationIlSt5ratioILl1ELl1000000000EEEC1IlvEERKT_,comdat
	.align 2
	.weak	_ZNSt6chrono8durationIlSt5ratioILl1ELl1000000000EEEC1IlvEERKT_
	.type	_ZNSt6chrono8durationIlSt5ratioILl1ELl1000000000EEEC1IlvEERKT_, @function
_ZNSt6chrono8durationIlSt5ratioILl1ELl1000000000EEEC1IlvEERKT_:
.LFB2251:
	.cfi_startproc
	endbr64
	pushq	%rbp
	.cfi_def_cfa_offset 16
	.cfi_offset 6, -16
	movq	%rsp, %rbp
	.cfi_def_cfa_register 6
	movq	%rdi, -8(%rbp)
	movq	%rsi, -16(%rbp)
	movq	-16(%rbp), %rax
	movq	(%rax), %rdx
	movq	-8(%rbp), %rax
	movq	%rdx, (%rax)
	nop
	popq	%rbp
	.cfi_def_cfa 7, 8
	ret
	.cfi_endproc
.LFE2251:
	.size	_ZNSt6chrono8durationIlSt5ratioILl1ELl1000000000EEEC1IlvEERKT_, .-_ZNSt6chrono8durationIlSt5ratioILl1ELl1000000000EEEC1IlvEERKT_
	.section	.text._ZNKSt6chrono8durationIlSt5ratioILl1ELl1000000000EEE5countEv,"axG",@progbits,_ZNKSt6chrono8durationIlSt5ratioILl1ELl1000000000EEE5countEv,comdat
	.align 2
	.weak	_ZNKSt6chrono8durationIlSt5ratioILl1ELl1000000000EEE5countEv
	.type	_ZNKSt6chrono8durationIlSt5ratioILl1ELl1000000000EEE5countEv, @function
_ZNKSt6chrono8durationIlSt5ratioILl1ELl1000000000EEE5countEv:
.LFB2253:
	.cfi_startproc
	endbr64
	pushq	%rbp
	.cfi_def_cfa_offset 16
	.cfi_offset 6, -16
	movq	%rsp, %rbp
	.cfi_def_cfa_register 6
	movq	%rdi, -8(%rbp)
	movq	-8(%rbp), %rax
	movq	(%rax), %rax
	popq	%rbp
	.cfi_def_cfa 7, 8
	ret
	.cfi_endproc
.LFE2253:
	.size	_ZNKSt6chrono8durationIlSt5ratioILl1ELl1000000000EEE5countEv, .-_ZNKSt6chrono8durationIlSt5ratioILl1ELl1000000000EEE5countEv
	.local	_ZL6array1
	.comm	_ZL6array1,4000,32
	.local	_ZL6array2
	.comm	_ZL6array2,8000,32
	.local	_ZL6array3
	.comm	_ZL6array3,12000,32
	.local	_ZL6array4
	.comm	_ZL6array4,16000,32
	.local	_ZL6array5
	.comm	_ZL6array5,20000,32
	.local	_ZL6array6
	.comm	_ZL6array6,24000,32
	.local	_ZL6array7
	.comm	_ZL6array7,28000,32
	.local	_ZL6array8
	.comm	_ZL6array8,32000,32
	.local	_ZL6array9
	.comm	_ZL6array9,36000,32
	.local	_ZL7array10
	.comm	_ZL7array10,76000,32
	.text
	.globl	_Z4swapPii
	.type	_Z4swapPii, @function
_Z4swapPii:
.LFB2276:
	.cfi_startproc
	endbr64
	pushq	%rbp
	.cfi_def_cfa_offset 16
	.cfi_offset 6, -16
	movq	%rsp, %rbp
	.cfi_def_cfa_register 6
	movq	%rdi, -24(%rbp)
	movl	%esi, -28(%rbp)
	movl	-28(%rbp), %eax
	cltq
	leaq	0(,%rax,4), %rdx
	movq	-24(%rbp), %rax
	addq	%rdx, %rax
	movl	(%rax), %eax
	movl	%eax, -4(%rbp)
	movl	-28(%rbp), %eax
	cltq
	addq	$1, %rax
	leaq	0(,%rax,4), %rdx
	movq	-24(%rbp), %rax
	addq	%rdx, %rax
	movl	-28(%rbp), %edx
	movslq	%edx, %rdx
	leaq	0(,%rdx,4), %rcx
	movq	-24(%rbp), %rdx
	addq	%rcx, %rdx
	movl	(%rax), %eax
	movl	%eax, (%rdx)
	movl	-28(%rbp), %eax
	cltq
	addq	$1, %rax
	leaq	0(,%rax,4), %rdx
	movq	-24(%rbp), %rax
	addq	%rax, %rdx
	movl	-4(%rbp), %eax
	movl	%eax, (%rdx)
	nop
	popq	%rbp
	.cfi_def_cfa 7, 8
	ret
	.cfi_endproc
.LFE2276:
	.size	_Z4swapPii, .-_Z4swapPii
	.globl	_Z4sortPii
	.type	_Z4sortPii, @function

_Z4sortPii:
.LFB2277:
        .cfi_startproc
        endbr64
        pushq   %rbp
        .cfi_def_cfa_offset 16
        .cfi_offset 6, -16
        movq    %rsp, %rbp
        .cfi_def_cfa_register 6
        subq    $32, %rsp
        movq    %rdi, %r12
        movl    %esi, %r13d
        movl    $0, %r8d
        jmp     .L6
.L10:
        movl    %r8d, %eax
        subl    $1, %eax
        movl    %eax, %r9d
        jmp     .L7
.L9:
        movl    %r9d, %edx
        movq    %r12, %rax
        movl    %edx, %esi
        movq    %rax, %rdi
        call    _Z4swapPii
        subl    $1, %r9d
.L7:
        cmpl    $0, %r9d
        js      .L8
        movl    %r9d, %eax
        cltq
        leaq    0(,%rax,4), %rdx
        movq    %r12, %rax
        addq    %rdx, %rax
        movl    (%rax), %edx
        movl    %r9d, %eax
        cltq
        addq    $1, %rax
        leaq    0(,%rax,4), %rcx
        movq    %r12, %rax
        addq    %rcx, %rax
        movl    (%rax), %eax
        cmpl    %eax, %edx
        jg      .L9
.L8:
        addl    $1, %r8d
.L6:
        movl    %r8d, %eax
        cmpl    %r13d, %eax
        jl      .L10
        nop
        nop
        leave
        .cfi_def_cfa 7, 8
        ret
        .cfi_endproc

/*_Z4sortPii:
.LFB2277:
        .cfi_startproc
        endbr64
        pushq   %rbp
        .cfi_def_cfa_offset 16
        .cfi_offset 6, -16
        movq    %rsp, %rbp
        .cfi_def_cfa_register 6
        subq    $16, %rsp  # Reduced stack space usage
        movq    %rdi, %r12 # Store pointer in %r12 to avoid repeated memory accesses
        movl    %esi, %r13d # Store size in %r13d for repeated use
        movl    $0, %eax  # Initialize outer loop counter in %eax
.L6:
        movl    %eax, %ecx  # Inner loop counter
        subl    $1, %ecx
	jmp	.L8
.L7:
        cmpl    $0, %ecx
        jl      .L8
        movq    %r12, %rdx
        leaq    (%rcx,%rcx,2), %rsi
        movl    (%rdx,%rsi,4), %edi
        movl    4(%rdx,%rsi,4), %esi
        cmpl    %edi, %esi
        jle     .L9
        movq    %r12, %rdi
        movl    %ecx, %esi
        call    _Z4swapPii
.L9:
        subl    $1, %ecx
        jmp     .L7
.L8:
        addl    $1, %eax
        cmpl    %r13d, %eax
        jl      .L6
        leave
        .cfi_def_cfa 7, 8
        ret
        .cfi_endproc*/

/*_Z4sortPii:
.LFB2277:
        .cfi_startproc
        endbr64
        pushq   %rbp
        .cfi_def_cfa_offset 16
        .cfi_offset 6, -16
        movq    %rsp, %rbp
        .cfi_def_cfa_register 6
        subq    $16, %rsp                   # Reduced stack space
        movq    %rdi, %r12                  # Store array pointer in %r12
        movl    %esi, %r13d                 # Store array size in %r13d
        movl    $0, %eax                    # Outer loop counter (i = 0)

.Louter_loop_start:
        cmpl    %r13d, %eax                 # Compare i with array size
        jge     .Lend                       # Exit if i >= size
        movl    %eax, %ecx                  # Inner loop counter (j = i)

.Linner_loop_start:
        cmpl    $0, %ecx                    # Compare j with 0
        jl      .Louter_loop_increment      # Exit inner loop if j < 0

        # Compare and swap logic
        leaq    0(,%rcx,4), %rdx            # Address of arr[j]
        movq    %r12, %rsi                  # Base address of array
        addq    %rdx, %rsi
        movl    (%rsi), %edx                # Load arr[j] into %edx

        leaq    -4(,%rcx,4), %rax           # Address of arr[j - 1]
        movq    %r12, %rdi                  # Base address of array
        addq    %rax, %rdi
        movl    (%rdi), %eax                # Load arr[j - 1] into %eax

        cmpl    %eax, %edx                  # Compare arr[j - 1] with arr[j]
        jle     .Linner_loop_decrement      # Skip swap if arr[j - 1] <= arr[j]

        # Swap arr[j] and arr[j - 1]
        movl    %eax, (%rsi)                # Store arr[j - 1] in arr[j]
        movl    %edx, (%rdi)                # Store arr[j] in arr[j - 1]

.Linner_loop_decrement:
        subl    $1, %ecx                    # j = j - 1
        jmp     .Linner_loop_start          # Continue inner loop

.Louter_loop_increment:
        addl    $1, %eax                    # i = i + 1
        jmp     .Louter_loop_start          # Continue outer loop

.Lend:
        nop
        leave
        .cfi_def_cfa 7, 8
        ret
        .cfi_endproc*/


/*_Z4sortPii:
.LFB2277:
	.cfi_startproc
	endbr64
	pushq	%rbp
	.cfi_def_cfa_offset 16
	.cfi_offset 6, -16
	movq	%rsp, %rbp
	.cfi_def_cfa_register 6
	subq	$32, %rsp
	movq	%rdi, -24(%rbp)
	movl	%esi, -28(%rbp)
	movl	$0, -8(%rbp)
	jmp	.L6
.L10:
	movl	-8(%rbp), %eax
	subl	$1, %eax
	movl	%eax, -4(%rbp)
	jmp	.L7
.L9:
	movl	-4(%rbp), %edx
	movq	-24(%rbp), %rax
	movl	%edx, %esi
	movq	%rax, %rdi
	call	_Z4swapPii
	subl	$1, -4(%rbp)
.L7:
	cmpl	$0, -4(%rbp)
	js	.L8
	movl	-4(%rbp), %eax
	cltq
	leaq	0(,%rax,4), %rdx
	movq	-24(%rbp), %rax
	addq	%rdx, %rax
	movl	(%rax), %edx
	movl	-4(%rbp), %eax
	cltq
	addq	$1, %rax
	leaq	0(,%rax,4), %rcx
	movq	-24(%rbp), %rax
	addq	%rcx, %rax
	movl	(%rax), %eax
	cmpl	%eax, %edx
	jg	.L9
.L8:
	addl	$1, -8(%rbp)
.L6:
	movl	-8(%rbp), %eax
	cmpl	-28(%rbp), %eax
	jl	.L10
	nop
	nop
	leave
	.cfi_def_cfa 7, 8
	ret
	.cfi_endproc*/
.LFE2277:
	.size	_Z4sortPii, .-_Z4sortPii
	.section	.text._ZNSt6chronomiINS_3_V212system_clockENS_8durationIlSt5ratioILl1ELl1000000000EEEES6_EENSt11common_typeIJT0_T1_EE4typeERKNS_10time_pointIT_S8_EERKNSC_ISD_S9_EE,"axG",@progbits,_ZNSt6chronomiINS_3_V212system_clockENS_8durationIlSt5ratioILl1ELl1000000000EEEES6_EENSt11common_typeIJT0_T1_EE4typeERKNS_10time_pointIT_S8_EERKNSC_ISD_S9_EE,comdat
	.weak	_ZNSt6chronomiINS_3_V212system_clockENS_8durationIlSt5ratioILl1ELl1000000000EEEES6_EENSt11common_typeIJT0_T1_EE4typeERKNS_10time_pointIT_S8_EERKNSC_ISD_S9_EE
	.type	_ZNSt6chronomiINS_3_V212system_clockENS_8durationIlSt5ratioILl1ELl1000000000EEEES6_EENSt11common_typeIJT0_T1_EE4typeERKNS_10time_pointIT_S8_EERKNSC_ISD_S9_EE, @function
_ZNSt6chronomiINS_3_V212system_clockENS_8durationIlSt5ratioILl1ELl1000000000EEEES6_EENSt11common_typeIJT0_T1_EE4typeERKNS_10time_pointIT_S8_EERKNSC_ISD_S9_EE:
.LFB2280:
	.cfi_startproc
	endbr64
	pushq	%rbp
	.cfi_def_cfa_offset 16
	.cfi_offset 6, -16
	movq	%rsp, %rbp
	.cfi_def_cfa_register 6
	subq	$48, %rsp
	movq	%rdi, -40(%rbp)
	movq	%rsi, -48(%rbp)
	movq	%fs:40, %rax
	movq	%rax, -8(%rbp)
	xorl	%eax, %eax
	movq	-48(%rbp), %rax
	movq	%rax, %rdi
	call	_ZNKSt6chrono10time_pointINS_3_V212system_clockENS_8durationIlSt5ratioILl1ELl1000000000EEEEE16time_since_epochEv
	movq	%rax, -16(%rbp)
	movq	-40(%rbp), %rax
	movq	%rax, %rdi
	call	_ZNKSt6chrono10time_pointINS_3_V212system_clockENS_8durationIlSt5ratioILl1ELl1000000000EEEEE16time_since_epochEv
	movq	%rax, -24(%rbp)
	leaq	-16(%rbp), %rdx
	leaq	-24(%rbp), %rax
	movq	%rdx, %rsi
	movq	%rax, %rdi
	call	_ZNSt6chronomiIlSt5ratioILl1ELl1000000000EElS2_EENSt11common_typeIJNS_8durationIT_T0_EENS4_IT1_T2_EEEE4typeERKS7_RKSA_
	movq	-8(%rbp), %rdx
	subq	%fs:40, %rdx
	je	.L13
	call	__stack_chk_fail@PLT
.L13:
	leave
	.cfi_def_cfa 7, 8
	ret
	.cfi_endproc
.LFE2280:
	.size	_ZNSt6chronomiINS_3_V212system_clockENS_8durationIlSt5ratioILl1ELl1000000000EEEES6_EENSt11common_typeIJT0_T1_EE4typeERKNS_10time_pointIT_S8_EERKNSC_ISD_S9_EE, .-_ZNSt6chronomiINS_3_V212system_clockENS_8durationIlSt5ratioILl1ELl1000000000EEEES6_EENSt11common_typeIJT0_T1_EE4typeERKNS_10time_pointIT_S8_EERKNSC_ISD_S9_EE
	.section	.text._ZNKSt6chrono10time_pointINS_3_V212system_clockENS_8durationIlSt5ratioILl1ELl1000000000EEEEE16time_since_epochEv,"axG",@progbits,_ZNKSt6chrono10time_pointINS_3_V212system_clockENS_8durationIlSt5ratioILl1ELl1000000000EEEEE16time_since_epochEv,comdat
	.align 2
	.weak	_ZNKSt6chrono10time_pointINS_3_V212system_clockENS_8durationIlSt5ratioILl1ELl1000000000EEEEE16time_since_epochEv
	.type	_ZNKSt6chrono10time_pointINS_3_V212system_clockENS_8durationIlSt5ratioILl1ELl1000000000EEEEE16time_since_epochEv, @function
_ZNKSt6chrono10time_pointINS_3_V212system_clockENS_8durationIlSt5ratioILl1ELl1000000000EEEEE16time_since_epochEv:
.LFB2281:
	.cfi_startproc
	endbr64
	pushq	%rbp
	.cfi_def_cfa_offset 16
	.cfi_offset 6, -16
	movq	%rsp, %rbp
	.cfi_def_cfa_register 6
	movq	%rdi, -8(%rbp)
	movq	-8(%rbp), %rax
	movq	(%rax), %rax
	popq	%rbp
	.cfi_def_cfa 7, 8
	ret
	.cfi_endproc
.LFE2281:
	.size	_ZNKSt6chrono10time_pointINS_3_V212system_clockENS_8durationIlSt5ratioILl1ELl1000000000EEEEE16time_since_epochEv, .-_ZNKSt6chrono10time_pointINS_3_V212system_clockENS_8durationIlSt5ratioILl1ELl1000000000EEEEE16time_since_epochEv
	.section	.rodata
	.align 8
.LC0:
	.string	"Elapsed Time (1000 elements): "
.LC1:
	.string	" ms"
	.align 8
.LC2:
	.string	"Elapsed Time (2000 elements): "
	.align 8
.LC3:
	.string	"Elapsed Time (3000 elements): "
	.align 8
.LC4:
	.string	"Elapsed Time (4000 elements): "
	.align 8
.LC5:
	.string	"Elapsed Time (5000 elements): "
	.align 8
.LC6:
	.string	"Elapsed Time (6000 elements): "
	.align 8
.LC7:
	.string	"Elapsed Time (7000 elements): "
	.align 8
.LC8:
	.string	"Elapsed Time (8000 elements): "
	.align 8
.LC9:
	.string	"Elapsed Time (9000 elements): "
	.align 8
.LC10:
	.string	"Elapsed Time (10000 elements): "
	.text
	.globl	main
	.type	main, @function
main:
.LFB2278:
	.cfi_startproc
	endbr64
	pushq	%rbp
	.cfi_def_cfa_offset 16
	.cfi_offset 6, -16
	movq	%rsp, %rbp
	.cfi_def_cfa_register 6
	pushq	%rbx
	subq	$312, %rsp
	.cfi_offset 3, -24
	movq	%fs:40, %rax
	movq	%rax, -24(%rbp)
	xorl	%eax, %eax
	movl	$1000, -312(%rbp)
	jmp	.L17
.L18:
	movl	-312(%rbp), %eax
	cltq
	leaq	0(,%rax,4), %rcx
	leaq	_ZL6array1(%rip), %rdx
	movl	-312(%rbp), %eax
	movl	%eax, (%rcx,%rdx)
	subl	$1, -312(%rbp)
.L17:
	cmpl	$0, -312(%rbp)
	jg	.L18
	call	_ZNSt6chrono3_V212system_clock3nowEv@PLT
	movq	%rax, -272(%rbp)
	movl	$1000, %esi
	leaq	_ZL6array1(%rip), %rax
	movq	%rax, %rdi
	call	_Z4sortPii
	call	_ZNSt6chrono3_V212system_clock3nowEv@PLT
	movq	%rax, -264(%rbp)
	leaq	-272(%rbp), %rdx
	leaq	-264(%rbp), %rax
	movq	%rdx, %rsi
	movq	%rax, %rdi
	call	_ZNSt6chronomiINS_3_V212system_clockENS_8durationIlSt5ratioILl1ELl1000000000EEEES6_EENSt11common_typeIJT0_T1_EE4typeERKNS_10time_pointIT_S8_EERKNSC_ISD_S9_EE
	movq	%rax, -32(%rbp)
	leaq	-32(%rbp), %rdx
	leaq	-256(%rbp), %rax
	movq	%rdx, %rsi
	movq	%rax, %rdi
	call	_ZNSt6chrono8durationIdSt5ratioILl1ELl1000EEEC1IlS1_ILl1ELl1000000000EEvEERKNS0_IT_T0_EE
	leaq	.LC0(%rip), %rax
	movq	%rax, %rsi
	leaq	_ZSt4cout(%rip), %rax
	movq	%rax, %rdi
	call	_ZStlsISt11char_traitsIcEERSt13basic_ostreamIcT_ES5_PKc@PLT
	movq	%rax, %rbx
	leaq	-256(%rbp), %rax
	movq	%rax, %rdi
	call	_ZNKSt6chrono8durationIdSt5ratioILl1ELl1000EEE5countEv
	movq	%xmm0, %rax
	movq	%rax, %xmm0
	movq	%rbx, %rdi
	call	_ZNSolsEd@PLT
	movq	%rax, %rdx
	leaq	.LC1(%rip), %rax
	movq	%rax, %rsi
	movq	%rdx, %rdi
	call	_ZStlsISt11char_traitsIcEERSt13basic_ostreamIcT_ES5_PKc@PLT
	movq	_ZSt4endlIcSt11char_traitsIcEERSt13basic_ostreamIT_T0_ES6_@GOTPCREL(%rip), %rdx
	movq	%rdx, %rsi
	movq	%rax, %rdi
	call	_ZNSolsEPFRSoS_E@PLT
	movl	$2000, -308(%rbp)
	jmp	.L19
.L20:
	movl	-308(%rbp), %eax
	cltq
	leaq	0(,%rax,4), %rcx
	leaq	_ZL6array2(%rip), %rdx
	movl	-308(%rbp), %eax
	movl	%eax, (%rcx,%rdx)
	subl	$1, -308(%rbp)
.L19:
	cmpl	$0, -308(%rbp)
	jg	.L20
	call	_ZNSt6chrono3_V212system_clock3nowEv@PLT
	movq	%rax, -248(%rbp)
	movl	$2000, %esi
	leaq	_ZL6array2(%rip), %rax
	movq	%rax, %rdi
	call	_Z4sortPii
	call	_ZNSt6chrono3_V212system_clock3nowEv@PLT
	movq	%rax, -240(%rbp)
	leaq	-248(%rbp), %rdx
	leaq	-240(%rbp), %rax
	movq	%rdx, %rsi
	movq	%rax, %rdi
	call	_ZNSt6chronomiINS_3_V212system_clockENS_8durationIlSt5ratioILl1ELl1000000000EEEES6_EENSt11common_typeIJT0_T1_EE4typeERKNS_10time_pointIT_S8_EERKNSC_ISD_S9_EE
	movq	%rax, -32(%rbp)
	leaq	-32(%rbp), %rdx
	leaq	-232(%rbp), %rax
	movq	%rdx, %rsi
	movq	%rax, %rdi
	call	_ZNSt6chrono8durationIdSt5ratioILl1ELl1000EEEC1IlS1_ILl1ELl1000000000EEvEERKNS0_IT_T0_EE
	leaq	.LC2(%rip), %rax
	movq	%rax, %rsi
	leaq	_ZSt4cout(%rip), %rax
	movq	%rax, %rdi
	call	_ZStlsISt11char_traitsIcEERSt13basic_ostreamIcT_ES5_PKc@PLT
	movq	%rax, %rbx
	leaq	-232(%rbp), %rax
	movq	%rax, %rdi
	call	_ZNKSt6chrono8durationIdSt5ratioILl1ELl1000EEE5countEv
	movq	%xmm0, %rax
	movq	%rax, %xmm0
	movq	%rbx, %rdi
	call	_ZNSolsEd@PLT
	movq	%rax, %rdx
	leaq	.LC1(%rip), %rax
	movq	%rax, %rsi
	movq	%rdx, %rdi
	call	_ZStlsISt11char_traitsIcEERSt13basic_ostreamIcT_ES5_PKc@PLT
	movq	_ZSt4endlIcSt11char_traitsIcEERSt13basic_ostreamIT_T0_ES6_@GOTPCREL(%rip), %rdx
	movq	%rdx, %rsi
	movq	%rax, %rdi
	call	_ZNSolsEPFRSoS_E@PLT
	movl	$3000, -304(%rbp)
	jmp	.L21
.L22:
	movl	-304(%rbp), %eax
	cltq
	leaq	0(,%rax,4), %rcx
	leaq	_ZL6array3(%rip), %rdx
	movl	-304(%rbp), %eax
	movl	%eax, (%rcx,%rdx)
	subl	$1, -304(%rbp)
.L21:
	cmpl	$0, -304(%rbp)
	jg	.L22
	call	_ZNSt6chrono3_V212system_clock3nowEv@PLT
	movq	%rax, -224(%rbp)
	movl	$3000, %esi
	leaq	_ZL6array3(%rip), %rax
	movq	%rax, %rdi
	call	_Z4sortPii
	call	_ZNSt6chrono3_V212system_clock3nowEv@PLT
	movq	%rax, -216(%rbp)
	leaq	-224(%rbp), %rdx
	leaq	-216(%rbp), %rax
	movq	%rdx, %rsi
	movq	%rax, %rdi
	call	_ZNSt6chronomiINS_3_V212system_clockENS_8durationIlSt5ratioILl1ELl1000000000EEEES6_EENSt11common_typeIJT0_T1_EE4typeERKNS_10time_pointIT_S8_EERKNSC_ISD_S9_EE
	movq	%rax, -32(%rbp)
	leaq	-32(%rbp), %rdx
	leaq	-208(%rbp), %rax
	movq	%rdx, %rsi
	movq	%rax, %rdi
	call	_ZNSt6chrono8durationIdSt5ratioILl1ELl1000EEEC1IlS1_ILl1ELl1000000000EEvEERKNS0_IT_T0_EE
	leaq	.LC3(%rip), %rax
	movq	%rax, %rsi
	leaq	_ZSt4cout(%rip), %rax
	movq	%rax, %rdi
	call	_ZStlsISt11char_traitsIcEERSt13basic_ostreamIcT_ES5_PKc@PLT
	movq	%rax, %rbx
	leaq	-208(%rbp), %rax
	movq	%rax, %rdi
	call	_ZNKSt6chrono8durationIdSt5ratioILl1ELl1000EEE5countEv
	movq	%xmm0, %rax
	movq	%rax, %xmm0
	movq	%rbx, %rdi
	call	_ZNSolsEd@PLT
	movq	%rax, %rdx
	leaq	.LC1(%rip), %rax
	movq	%rax, %rsi
	movq	%rdx, %rdi
	call	_ZStlsISt11char_traitsIcEERSt13basic_ostreamIcT_ES5_PKc@PLT
	movq	_ZSt4endlIcSt11char_traitsIcEERSt13basic_ostreamIT_T0_ES6_@GOTPCREL(%rip), %rdx
	movq	%rdx, %rsi
	movq	%rax, %rdi
	call	_ZNSolsEPFRSoS_E@PLT
	movl	$4000, -300(%rbp)
	jmp	.L23
.L24:
	movl	-300(%rbp), %eax
	cltq
	leaq	0(,%rax,4), %rcx
	leaq	_ZL6array4(%rip), %rdx
	movl	-300(%rbp), %eax
	movl	%eax, (%rcx,%rdx)
	subl	$1, -300(%rbp)
.L23:
	cmpl	$0, -300(%rbp)
	jg	.L24
	call	_ZNSt6chrono3_V212system_clock3nowEv@PLT
	movq	%rax, -200(%rbp)
	movl	$4000, %esi
	leaq	_ZL6array4(%rip), %rax
	movq	%rax, %rdi
	call	_Z4sortPii
	call	_ZNSt6chrono3_V212system_clock3nowEv@PLT
	movq	%rax, -192(%rbp)
	leaq	-200(%rbp), %rdx
	leaq	-192(%rbp), %rax
	movq	%rdx, %rsi
	movq	%rax, %rdi
	call	_ZNSt6chronomiINS_3_V212system_clockENS_8durationIlSt5ratioILl1ELl1000000000EEEES6_EENSt11common_typeIJT0_T1_EE4typeERKNS_10time_pointIT_S8_EERKNSC_ISD_S9_EE
	movq	%rax, -32(%rbp)
	leaq	-32(%rbp), %rdx
	leaq	-184(%rbp), %rax
	movq	%rdx, %rsi
	movq	%rax, %rdi
	call	_ZNSt6chrono8durationIdSt5ratioILl1ELl1000EEEC1IlS1_ILl1ELl1000000000EEvEERKNS0_IT_T0_EE
	leaq	.LC4(%rip), %rax
	movq	%rax, %rsi
	leaq	_ZSt4cout(%rip), %rax
	movq	%rax, %rdi
	call	_ZStlsISt11char_traitsIcEERSt13basic_ostreamIcT_ES5_PKc@PLT
	movq	%rax, %rbx
	leaq	-184(%rbp), %rax
	movq	%rax, %rdi
	call	_ZNKSt6chrono8durationIdSt5ratioILl1ELl1000EEE5countEv
	movq	%xmm0, %rax
	movq	%rax, %xmm0
	movq	%rbx, %rdi
	call	_ZNSolsEd@PLT
	movq	%rax, %rdx
	leaq	.LC1(%rip), %rax
	movq	%rax, %rsi
	movq	%rdx, %rdi
	call	_ZStlsISt11char_traitsIcEERSt13basic_ostreamIcT_ES5_PKc@PLT
	movq	_ZSt4endlIcSt11char_traitsIcEERSt13basic_ostreamIT_T0_ES6_@GOTPCREL(%rip), %rdx
	movq	%rdx, %rsi
	movq	%rax, %rdi
	call	_ZNSolsEPFRSoS_E@PLT
	movl	$5000, -296(%rbp)
	jmp	.L25
.L26:
	movl	-296(%rbp), %eax
	cltq
	leaq	0(,%rax,4), %rcx
	leaq	_ZL6array5(%rip), %rdx
	movl	-296(%rbp), %eax
	movl	%eax, (%rcx,%rdx)
	subl	$1, -296(%rbp)
.L25:
	cmpl	$0, -296(%rbp)
	jg	.L26
	call	_ZNSt6chrono3_V212system_clock3nowEv@PLT
	movq	%rax, -176(%rbp)
	movl	$5000, %esi
	leaq	_ZL6array5(%rip), %rax
	movq	%rax, %rdi
	call	_Z4sortPii
	call	_ZNSt6chrono3_V212system_clock3nowEv@PLT
	movq	%rax, -168(%rbp)
	leaq	-176(%rbp), %rdx
	leaq	-168(%rbp), %rax
	movq	%rdx, %rsi
	movq	%rax, %rdi
	call	_ZNSt6chronomiINS_3_V212system_clockENS_8durationIlSt5ratioILl1ELl1000000000EEEES6_EENSt11common_typeIJT0_T1_EE4typeERKNS_10time_pointIT_S8_EERKNSC_ISD_S9_EE
	movq	%rax, -32(%rbp)
	leaq	-32(%rbp), %rdx
	leaq	-160(%rbp), %rax
	movq	%rdx, %rsi
	movq	%rax, %rdi
	call	_ZNSt6chrono8durationIdSt5ratioILl1ELl1000EEEC1IlS1_ILl1ELl1000000000EEvEERKNS0_IT_T0_EE
	leaq	.LC5(%rip), %rax
	movq	%rax, %rsi
	leaq	_ZSt4cout(%rip), %rax
	movq	%rax, %rdi
	call	_ZStlsISt11char_traitsIcEERSt13basic_ostreamIcT_ES5_PKc@PLT
	movq	%rax, %rbx
	leaq	-160(%rbp), %rax
	movq	%rax, %rdi
	call	_ZNKSt6chrono8durationIdSt5ratioILl1ELl1000EEE5countEv
	movq	%xmm0, %rax
	movq	%rax, %xmm0
	movq	%rbx, %rdi
	call	_ZNSolsEd@PLT
	movq	%rax, %rdx
	leaq	.LC1(%rip), %rax
	movq	%rax, %rsi
	movq	%rdx, %rdi
	call	_ZStlsISt11char_traitsIcEERSt13basic_ostreamIcT_ES5_PKc@PLT
	movq	_ZSt4endlIcSt11char_traitsIcEERSt13basic_ostreamIT_T0_ES6_@GOTPCREL(%rip), %rdx
	movq	%rdx, %rsi
	movq	%rax, %rdi
	call	_ZNSolsEPFRSoS_E@PLT
	movl	$6000, -292(%rbp)
	jmp	.L27
.L28:
	movl	-292(%rbp), %eax
	cltq
	leaq	0(,%rax,4), %rcx
	leaq	_ZL6array6(%rip), %rdx
	movl	-292(%rbp), %eax
	movl	%eax, (%rcx,%rdx)
	subl	$1, -292(%rbp)
.L27:
	cmpl	$0, -292(%rbp)
	jg	.L28
	call	_ZNSt6chrono3_V212system_clock3nowEv@PLT
	movq	%rax, -152(%rbp)
	movl	$6000, %esi
	leaq	_ZL6array6(%rip), %rax
	movq	%rax, %rdi
	call	_Z4sortPii
	call	_ZNSt6chrono3_V212system_clock3nowEv@PLT
	movq	%rax, -144(%rbp)
	leaq	-152(%rbp), %rdx
	leaq	-144(%rbp), %rax
	movq	%rdx, %rsi
	movq	%rax, %rdi
	call	_ZNSt6chronomiINS_3_V212system_clockENS_8durationIlSt5ratioILl1ELl1000000000EEEES6_EENSt11common_typeIJT0_T1_EE4typeERKNS_10time_pointIT_S8_EERKNSC_ISD_S9_EE
	movq	%rax, -32(%rbp)
	leaq	-32(%rbp), %rdx
	leaq	-136(%rbp), %rax
	movq	%rdx, %rsi
	movq	%rax, %rdi
	call	_ZNSt6chrono8durationIdSt5ratioILl1ELl1000EEEC1IlS1_ILl1ELl1000000000EEvEERKNS0_IT_T0_EE
	leaq	.LC6(%rip), %rax
	movq	%rax, %rsi
	leaq	_ZSt4cout(%rip), %rax
	movq	%rax, %rdi
	call	_ZStlsISt11char_traitsIcEERSt13basic_ostreamIcT_ES5_PKc@PLT
	movq	%rax, %rbx
	leaq	-136(%rbp), %rax
	movq	%rax, %rdi
	call	_ZNKSt6chrono8durationIdSt5ratioILl1ELl1000EEE5countEv
	movq	%xmm0, %rax
	movq	%rax, %xmm0
	movq	%rbx, %rdi
	call	_ZNSolsEd@PLT
	movq	%rax, %rdx
	leaq	.LC1(%rip), %rax
	movq	%rax, %rsi
	movq	%rdx, %rdi
	call	_ZStlsISt11char_traitsIcEERSt13basic_ostreamIcT_ES5_PKc@PLT
	movq	_ZSt4endlIcSt11char_traitsIcEERSt13basic_ostreamIT_T0_ES6_@GOTPCREL(%rip), %rdx
	movq	%rdx, %rsi
	movq	%rax, %rdi
	call	_ZNSolsEPFRSoS_E@PLT
	movl	$7000, -288(%rbp)
	jmp	.L29
.L30:
	movl	-288(%rbp), %eax
	cltq
	leaq	0(,%rax,4), %rcx
	leaq	_ZL6array7(%rip), %rdx
	movl	-288(%rbp), %eax
	movl	%eax, (%rcx,%rdx)
	subl	$1, -288(%rbp)
.L29:
	cmpl	$0, -288(%rbp)
	jg	.L30
	call	_ZNSt6chrono3_V212system_clock3nowEv@PLT
	movq	%rax, -128(%rbp)
	movl	$7000, %esi
	leaq	_ZL6array7(%rip), %rax
	movq	%rax, %rdi
	call	_Z4sortPii
	call	_ZNSt6chrono3_V212system_clock3nowEv@PLT
	movq	%rax, -120(%rbp)
	leaq	-128(%rbp), %rdx
	leaq	-120(%rbp), %rax
	movq	%rdx, %rsi
	movq	%rax, %rdi
	call	_ZNSt6chronomiINS_3_V212system_clockENS_8durationIlSt5ratioILl1ELl1000000000EEEES6_EENSt11common_typeIJT0_T1_EE4typeERKNS_10time_pointIT_S8_EERKNSC_ISD_S9_EE
	movq	%rax, -32(%rbp)
	leaq	-32(%rbp), %rdx
	leaq	-112(%rbp), %rax
	movq	%rdx, %rsi
	movq	%rax, %rdi
	call	_ZNSt6chrono8durationIdSt5ratioILl1ELl1000EEEC1IlS1_ILl1ELl1000000000EEvEERKNS0_IT_T0_EE
	leaq	.LC7(%rip), %rax
	movq	%rax, %rsi
	leaq	_ZSt4cout(%rip), %rax
	movq	%rax, %rdi
	call	_ZStlsISt11char_traitsIcEERSt13basic_ostreamIcT_ES5_PKc@PLT
	movq	%rax, %rbx
	leaq	-112(%rbp), %rax
	movq	%rax, %rdi
	call	_ZNKSt6chrono8durationIdSt5ratioILl1ELl1000EEE5countEv
	movq	%xmm0, %rax
	movq	%rax, %xmm0
	movq	%rbx, %rdi
	call	_ZNSolsEd@PLT
	movq	%rax, %rdx
	leaq	.LC1(%rip), %rax
	movq	%rax, %rsi
	movq	%rdx, %rdi
	call	_ZStlsISt11char_traitsIcEERSt13basic_ostreamIcT_ES5_PKc@PLT
	movq	_ZSt4endlIcSt11char_traitsIcEERSt13basic_ostreamIT_T0_ES6_@GOTPCREL(%rip), %rdx
	movq	%rdx, %rsi
	movq	%rax, %rdi
	call	_ZNSolsEPFRSoS_E@PLT
	movl	$8000, -284(%rbp)
	jmp	.L31
.L32:
	movl	-284(%rbp), %eax
	cltq
	leaq	0(,%rax,4), %rcx
	leaq	_ZL6array8(%rip), %rdx
	movl	-284(%rbp), %eax
	movl	%eax, (%rcx,%rdx)
	subl	$1, -284(%rbp)
.L31:
	cmpl	$0, -284(%rbp)
	jg	.L32
	call	_ZNSt6chrono3_V212system_clock3nowEv@PLT
	movq	%rax, -104(%rbp)
	movl	$8000, %esi
	leaq	_ZL6array8(%rip), %rax
	movq	%rax, %rdi
	call	_Z4sortPii
	call	_ZNSt6chrono3_V212system_clock3nowEv@PLT
	movq	%rax, -96(%rbp)
	leaq	-104(%rbp), %rdx
	leaq	-96(%rbp), %rax
	movq	%rdx, %rsi
	movq	%rax, %rdi
	call	_ZNSt6chronomiINS_3_V212system_clockENS_8durationIlSt5ratioILl1ELl1000000000EEEES6_EENSt11common_typeIJT0_T1_EE4typeERKNS_10time_pointIT_S8_EERKNSC_ISD_S9_EE
	movq	%rax, -32(%rbp)
	leaq	-32(%rbp), %rdx
	leaq	-88(%rbp), %rax
	movq	%rdx, %rsi
	movq	%rax, %rdi
	call	_ZNSt6chrono8durationIdSt5ratioILl1ELl1000EEEC1IlS1_ILl1ELl1000000000EEvEERKNS0_IT_T0_EE
	leaq	.LC8(%rip), %rax
	movq	%rax, %rsi
	leaq	_ZSt4cout(%rip), %rax
	movq	%rax, %rdi
	call	_ZStlsISt11char_traitsIcEERSt13basic_ostreamIcT_ES5_PKc@PLT
	movq	%rax, %rbx
	leaq	-88(%rbp), %rax
	movq	%rax, %rdi
	call	_ZNKSt6chrono8durationIdSt5ratioILl1ELl1000EEE5countEv
	movq	%xmm0, %rax
	movq	%rax, %xmm0
	movq	%rbx, %rdi
	call	_ZNSolsEd@PLT
	movq	%rax, %rdx
	leaq	.LC1(%rip), %rax
	movq	%rax, %rsi
	movq	%rdx, %rdi
	call	_ZStlsISt11char_traitsIcEERSt13basic_ostreamIcT_ES5_PKc@PLT
	movq	_ZSt4endlIcSt11char_traitsIcEERSt13basic_ostreamIT_T0_ES6_@GOTPCREL(%rip), %rdx
	movq	%rdx, %rsi
	movq	%rax, %rdi
	call	_ZNSolsEPFRSoS_E@PLT
	movl	$9000, -280(%rbp)
	jmp	.L33
.L34:
	movl	-280(%rbp), %eax
	cltq
	leaq	0(,%rax,4), %rcx
	leaq	_ZL6array9(%rip), %rdx
	movl	-280(%rbp), %eax
	movl	%eax, (%rcx,%rdx)
	subl	$1, -280(%rbp)
.L33:
	cmpl	$0, -280(%rbp)
	jg	.L34
	call	_ZNSt6chrono3_V212system_clock3nowEv@PLT
	movq	%rax, -80(%rbp)
	movl	$9000, %esi
	leaq	_ZL6array9(%rip), %rax
	movq	%rax, %rdi
	call	_Z4sortPii
	call	_ZNSt6chrono3_V212system_clock3nowEv@PLT
	movq	%rax, -72(%rbp)
	leaq	-80(%rbp), %rdx
	leaq	-72(%rbp), %rax
	movq	%rdx, %rsi
	movq	%rax, %rdi
	call	_ZNSt6chronomiINS_3_V212system_clockENS_8durationIlSt5ratioILl1ELl1000000000EEEES6_EENSt11common_typeIJT0_T1_EE4typeERKNS_10time_pointIT_S8_EERKNSC_ISD_S9_EE
	movq	%rax, -32(%rbp)
	leaq	-32(%rbp), %rdx
	leaq	-64(%rbp), %rax
	movq	%rdx, %rsi
	movq	%rax, %rdi
	call	_ZNSt6chrono8durationIdSt5ratioILl1ELl1000EEEC1IlS1_ILl1ELl1000000000EEvEERKNS0_IT_T0_EE
	leaq	.LC9(%rip), %rax
	movq	%rax, %rsi
	leaq	_ZSt4cout(%rip), %rax
	movq	%rax, %rdi
	call	_ZStlsISt11char_traitsIcEERSt13basic_ostreamIcT_ES5_PKc@PLT
	movq	%rax, %rbx
	leaq	-64(%rbp), %rax
	movq	%rax, %rdi
	call	_ZNKSt6chrono8durationIdSt5ratioILl1ELl1000EEE5countEv
	movq	%xmm0, %rax
	movq	%rax, %xmm0
	movq	%rbx, %rdi
	call	_ZNSolsEd@PLT
	movq	%rax, %rdx
	leaq	.LC1(%rip), %rax
	movq	%rax, %rsi
	movq	%rdx, %rdi
	call	_ZStlsISt11char_traitsIcEERSt13basic_ostreamIcT_ES5_PKc@PLT
	movq	_ZSt4endlIcSt11char_traitsIcEERSt13basic_ostreamIT_T0_ES6_@GOTPCREL(%rip), %rdx
	movq	%rdx, %rsi
	movq	%rax, %rdi
	call	_ZNSolsEPFRSoS_E@PLT
	movl	$10000, -276(%rbp)
	jmp	.L35
.L36:
	movl	-276(%rbp), %eax
	cltq
	leaq	0(,%rax,4), %rcx
	leaq	_ZL7array10(%rip), %rdx
	movl	-276(%rbp), %eax
	movl	%eax, (%rcx,%rdx)
	subl	$1, -276(%rbp)
.L35:
	cmpl	$0, -276(%rbp)
	jg	.L36
	call	_ZNSt6chrono3_V212system_clock3nowEv@PLT
	movq	%rax, -56(%rbp)
	movl	$10000, %esi
	leaq	_ZL7array10(%rip), %rax
	movq	%rax, %rdi
	call	_Z4sortPii
	call	_ZNSt6chrono3_V212system_clock3nowEv@PLT
	movq	%rax, -48(%rbp)
	leaq	-56(%rbp), %rdx
	leaq	-48(%rbp), %rax
	movq	%rdx, %rsi
	movq	%rax, %rdi
	call	_ZNSt6chronomiINS_3_V212system_clockENS_8durationIlSt5ratioILl1ELl1000000000EEEES6_EENSt11common_typeIJT0_T1_EE4typeERKNS_10time_pointIT_S8_EERKNSC_ISD_S9_EE
	movq	%rax, -32(%rbp)
	leaq	-32(%rbp), %rdx
	leaq	-40(%rbp), %rax
	movq	%rdx, %rsi
	movq	%rax, %rdi
	call	_ZNSt6chrono8durationIdSt5ratioILl1ELl1000EEEC1IlS1_ILl1ELl1000000000EEvEERKNS0_IT_T0_EE
	leaq	.LC10(%rip), %rax
	movq	%rax, %rsi
	leaq	_ZSt4cout(%rip), %rax
	movq	%rax, %rdi
	call	_ZStlsISt11char_traitsIcEERSt13basic_ostreamIcT_ES5_PKc@PLT
	movq	%rax, %rbx
	leaq	-40(%rbp), %rax
	movq	%rax, %rdi
	call	_ZNKSt6chrono8durationIdSt5ratioILl1ELl1000EEE5countEv
	movq	%xmm0, %rax
	movq	%rax, %xmm0
	movq	%rbx, %rdi
	call	_ZNSolsEd@PLT
	movq	%rax, %rdx
	leaq	.LC1(%rip), %rax
	movq	%rax, %rsi
	movq	%rdx, %rdi
	call	_ZStlsISt11char_traitsIcEERSt13basic_ostreamIcT_ES5_PKc@PLT
	movq	_ZSt4endlIcSt11char_traitsIcEERSt13basic_ostreamIT_T0_ES6_@GOTPCREL(%rip), %rdx
	movq	%rdx, %rsi
	movq	%rax, %rdi
	call	_ZNSolsEPFRSoS_E@PLT
	movl	$0, %eax
	movq	-24(%rbp), %rdx
	subq	%fs:40, %rdx
	je	.L38
	call	__stack_chk_fail@PLT
.L38:
	movq	-8(%rbp), %rbx
	leave
	.cfi_def_cfa 7, 8
	ret
	.cfi_endproc
.LFE2278:
	.size	main, .-main
	.section	.text._ZNSt6chrono8durationIdSt5ratioILl1ELl1000EEEC2IlS1_ILl1ELl1000000000EEvEERKNS0_IT_T0_EE,"axG",@progbits,_ZNSt6chrono8durationIdSt5ratioILl1ELl1000EEEC5IlS1_ILl1ELl1000000000EEvEERKNS0_IT_T0_EE,comdat
	.align 2
	.weak	_ZNSt6chrono8durationIdSt5ratioILl1ELl1000EEEC2IlS1_ILl1ELl1000000000EEvEERKNS0_IT_T0_EE
	.type	_ZNSt6chrono8durationIdSt5ratioILl1ELl1000EEEC2IlS1_ILl1ELl1000000000EEvEERKNS0_IT_T0_EE, @function
_ZNSt6chrono8durationIdSt5ratioILl1ELl1000EEEC2IlS1_ILl1ELl1000000000EEvEERKNS0_IT_T0_EE:
.LFB2564:
	.cfi_startproc
	endbr64
	pushq	%rbp
	.cfi_def_cfa_offset 16
	.cfi_offset 6, -16
	movq	%rsp, %rbp
	.cfi_def_cfa_register 6
	subq	$32, %rsp
	movq	%rdi, -24(%rbp)
	movq	%rsi, -32(%rbp)
	movq	%fs:40, %rax
	movq	%rax, -8(%rbp)
	xorl	%eax, %eax
	movq	-32(%rbp), %rax
	movq	%rax, %rdi
	call	_ZNSt6chrono13duration_castINS_8durationIdSt5ratioILl1ELl1000EEEElS2_ILl1ELl1000000000EEEENSt9enable_ifIXsrNS_13__is_durationIT_EE5valueES8_E4typeERKNS1_IT0_T1_EE
	movsd	%xmm0, -16(%rbp)
	leaq	-16(%rbp), %rax
	movq	%rax, %rdi
	call	_ZNKSt6chrono8durationIdSt5ratioILl1ELl1000EEE5countEv
	movq	%xmm0, %rax
	movq	-24(%rbp), %rdx
	movq	%rax, (%rdx)
	nop
	movq	-8(%rbp), %rax
	subq	%fs:40, %rax
	je	.L40
	call	__stack_chk_fail@PLT
.L40:
	leave
	.cfi_def_cfa 7, 8
	ret
	.cfi_endproc
.LFE2564:
	.size	_ZNSt6chrono8durationIdSt5ratioILl1ELl1000EEEC2IlS1_ILl1ELl1000000000EEvEERKNS0_IT_T0_EE, .-_ZNSt6chrono8durationIdSt5ratioILl1ELl1000EEEC2IlS1_ILl1ELl1000000000EEvEERKNS0_IT_T0_EE
	.weak	_ZNSt6chrono8durationIdSt5ratioILl1ELl1000EEEC1IlS1_ILl1ELl1000000000EEvEERKNS0_IT_T0_EE
	.set	_ZNSt6chrono8durationIdSt5ratioILl1ELl1000EEEC1IlS1_ILl1ELl1000000000EEvEERKNS0_IT_T0_EE,_ZNSt6chrono8durationIdSt5ratioILl1ELl1000EEEC2IlS1_ILl1ELl1000000000EEvEERKNS0_IT_T0_EE
	.section	.text._ZNSt6chronomiIlSt5ratioILl1ELl1000000000EElS2_EENSt11common_typeIJNS_8durationIT_T0_EENS4_IT1_T2_EEEE4typeERKS7_RKSA_,"axG",@progbits,_ZNSt6chronomiIlSt5ratioILl1ELl1000000000EElS2_EENSt11common_typeIJNS_8durationIT_T0_EENS4_IT1_T2_EEEE4typeERKS7_RKSA_,comdat
	.weak	_ZNSt6chronomiIlSt5ratioILl1ELl1000000000EElS2_EENSt11common_typeIJNS_8durationIT_T0_EENS4_IT1_T2_EEEE4typeERKS7_RKSA_
	.type	_ZNSt6chronomiIlSt5ratioILl1ELl1000000000EElS2_EENSt11common_typeIJNS_8durationIT_T0_EENS4_IT1_T2_EEEE4typeERKS7_RKSA_, @function
_ZNSt6chronomiIlSt5ratioILl1ELl1000000000EElS2_EENSt11common_typeIJNS_8durationIT_T0_EENS4_IT1_T2_EEEE4typeERKS7_RKSA_:
.LFB2566:
	.cfi_startproc
	endbr64
	pushq	%rbp
	.cfi_def_cfa_offset 16
	.cfi_offset 6, -16
	movq	%rsp, %rbp
	.cfi_def_cfa_register 6
	pushq	%rbx
	subq	$72, %rsp
	.cfi_offset 3, -24
	movq	%rdi, -72(%rbp)
	movq	%rsi, -80(%rbp)
	movq	%fs:40, %rax
	movq	%rax, -24(%rbp)
	xorl	%eax, %eax
	movq	-72(%rbp), %rax
	movq	(%rax), %rax
	movq	%rax, -56(%rbp)
	leaq	-56(%rbp), %rax
	movq	%rax, %rdi
	call	_ZNKSt6chrono8durationIlSt5ratioILl1ELl1000000000EEE5countEv
	movq	%rax, %rbx
	movq	-80(%rbp), %rax
	movq	(%rax), %rax
	movq	%rax, -48(%rbp)
	leaq	-48(%rbp), %rax
	movq	%rax, %rdi
	call	_ZNKSt6chrono8durationIlSt5ratioILl1ELl1000000000EEE5countEv
	subq	%rax, %rbx
	movq	%rbx, %rdx
	movq	%rdx, -40(%rbp)
	leaq	-40(%rbp), %rdx
	leaq	-32(%rbp), %rax
	movq	%rdx, %rsi
	movq	%rax, %rdi
	call	_ZNSt6chrono8durationIlSt5ratioILl1ELl1000000000EEEC1IlvEERKT_
	movq	-32(%rbp), %rax
	movq	-24(%rbp), %rdx
	subq	%fs:40, %rdx
	je	.L43
	call	__stack_chk_fail@PLT
.L43:
	movq	-8(%rbp), %rbx
	leave
	.cfi_def_cfa 7, 8
	ret
	.cfi_endproc
.LFE2566:
	.size	_ZNSt6chronomiIlSt5ratioILl1ELl1000000000EElS2_EENSt11common_typeIJNS_8durationIT_T0_EENS4_IT1_T2_EEEE4typeERKS7_RKSA_, .-_ZNSt6chronomiIlSt5ratioILl1ELl1000000000EElS2_EENSt11common_typeIJNS_8durationIT_T0_EENS4_IT1_T2_EEEE4typeERKS7_RKSA_
	.section	.text._ZNKSt6chrono8durationIdSt5ratioILl1ELl1000EEE5countEv,"axG",@progbits,_ZNKSt6chrono8durationIdSt5ratioILl1ELl1000EEE5countEv,comdat
	.align 2
	.weak	_ZNKSt6chrono8durationIdSt5ratioILl1ELl1000EEE5countEv
	.type	_ZNKSt6chrono8durationIdSt5ratioILl1ELl1000EEE5countEv, @function
_ZNKSt6chrono8durationIdSt5ratioILl1ELl1000EEE5countEv:
.LFB2568:
	.cfi_startproc
	endbr64
	pushq	%rbp
	.cfi_def_cfa_offset 16
	.cfi_offset 6, -16
	movq	%rsp, %rbp
	.cfi_def_cfa_register 6
	movq	%rdi, -8(%rbp)
	movq	-8(%rbp), %rax
	movsd	(%rax), %xmm0
	popq	%rbp
	.cfi_def_cfa 7, 8
	ret
	.cfi_endproc
.LFE2568:
	.size	_ZNKSt6chrono8durationIdSt5ratioILl1ELl1000EEE5countEv, .-_ZNKSt6chrono8durationIdSt5ratioILl1ELl1000EEE5countEv
	.section	.text._ZNSt6chrono13duration_castINS_8durationIdSt5ratioILl1ELl1000EEEElS2_ILl1ELl1000000000EEEENSt9enable_ifIXsrNS_13__is_durationIT_EE5valueES8_E4typeERKNS1_IT0_T1_EE,"axG",@progbits,_ZNSt6chrono13duration_castINS_8durationIdSt5ratioILl1ELl1000EEEElS2_ILl1ELl1000000000EEEENSt9enable_ifIXsrNS_13__is_durationIT_EE5valueES8_E4typeERKNS1_IT0_T1_EE,comdat
	.weak	_ZNSt6chrono13duration_castINS_8durationIdSt5ratioILl1ELl1000EEEElS2_ILl1ELl1000000000EEEENSt9enable_ifIXsrNS_13__is_durationIT_EE5valueES8_E4typeERKNS1_IT0_T1_EE
	.type	_ZNSt6chrono13duration_castINS_8durationIdSt5ratioILl1ELl1000EEEElS2_ILl1ELl1000000000EEEENSt9enable_ifIXsrNS_13__is_durationIT_EE5valueES8_E4typeERKNS1_IT0_T1_EE, @function
_ZNSt6chrono13duration_castINS_8durationIdSt5ratioILl1ELl1000EEEElS2_ILl1ELl1000000000EEEENSt9enable_ifIXsrNS_13__is_durationIT_EE5valueES8_E4typeERKNS1_IT0_T1_EE:
.LFB2682:
	.cfi_startproc
	endbr64
	pushq	%rbp
	.cfi_def_cfa_offset 16
	.cfi_offset 6, -16
	movq	%rsp, %rbp
	.cfi_def_cfa_register 6
	subq	$16, %rsp
	movq	%rdi, -8(%rbp)
	movq	-8(%rbp), %rax
	movq	%rax, %rdi
	call	_ZNSt6chrono20__duration_cast_implINS_8durationIdSt5ratioILl1ELl1000EEEES2_ILl1ELl1000000EEdLb1ELb0EE6__castIlS2_ILl1ELl1000000000EEEES4_RKNS1_IT_T0_EE
	leave
	.cfi_def_cfa 7, 8
	ret
	.cfi_endproc
.LFE2682:
	.size	_ZNSt6chrono13duration_castINS_8durationIdSt5ratioILl1ELl1000EEEElS2_ILl1ELl1000000000EEEENSt9enable_ifIXsrNS_13__is_durationIT_EE5valueES8_E4typeERKNS1_IT0_T1_EE, .-_ZNSt6chrono13duration_castINS_8durationIdSt5ratioILl1ELl1000EEEElS2_ILl1ELl1000000000EEEENSt9enable_ifIXsrNS_13__is_durationIT_EE5valueES8_E4typeERKNS1_IT0_T1_EE
	.section	.text._ZNSt6chrono20__duration_cast_implINS_8durationIdSt5ratioILl1ELl1000EEEES2_ILl1ELl1000000EEdLb1ELb0EE6__castIlS2_ILl1ELl1000000000EEEES4_RKNS1_IT_T0_EE,"axG",@progbits,_ZNSt6chrono20__duration_cast_implINS_8durationIdSt5ratioILl1ELl1000EEEES2_ILl1ELl1000000EEdLb1ELb0EE6__castIlS2_ILl1ELl1000000000EEEES4_RKNS1_IT_T0_EE,comdat
	.weak	_ZNSt6chrono20__duration_cast_implINS_8durationIdSt5ratioILl1ELl1000EEEES2_ILl1ELl1000000EEdLb1ELb0EE6__castIlS2_ILl1ELl1000000000EEEES4_RKNS1_IT_T0_EE
	.type	_ZNSt6chrono20__duration_cast_implINS_8durationIdSt5ratioILl1ELl1000EEEES2_ILl1ELl1000000EEdLb1ELb0EE6__castIlS2_ILl1ELl1000000000EEEES4_RKNS1_IT_T0_EE, @function
_ZNSt6chrono20__duration_cast_implINS_8durationIdSt5ratioILl1ELl1000EEEES2_ILl1ELl1000000EEdLb1ELb0EE6__castIlS2_ILl1ELl1000000000EEEES4_RKNS1_IT_T0_EE:
.LFB2755:
	.cfi_startproc
	endbr64
	pushq	%rbp
	.cfi_def_cfa_offset 16
	.cfi_offset 6, -16
	movq	%rsp, %rbp
	.cfi_def_cfa_register 6
	subq	$48, %rsp
	movq	%rdi, -40(%rbp)
	movq	%fs:40, %rax
	movq	%rax, -8(%rbp)
	xorl	%eax, %eax
	movq	-40(%rbp), %rax
	movq	%rax, %rdi
	call	_ZNKSt6chrono8durationIlSt5ratioILl1ELl1000000000EEE5countEv
	pxor	%xmm0, %xmm0
	cvtsi2sdq	%rax, %xmm0
	movsd	.LC11(%rip), %xmm1
	divsd	%xmm1, %xmm0
	movsd	%xmm0, -24(%rbp)
	leaq	-24(%rbp), %rdx
	leaq	-16(%rbp), %rax
	movq	%rdx, %rsi
	movq	%rax, %rdi
	call	_ZNSt6chrono8durationIdSt5ratioILl1ELl1000EEEC1IdvEERKT_
	movsd	-16(%rbp), %xmm0
	movq	-8(%rbp), %rax
	subq	%fs:40, %rax
	je	.L50
	call	__stack_chk_fail@PLT
.L50:
	leave
	.cfi_def_cfa 7, 8
	ret
	.cfi_endproc
.LFE2755:
	.size	_ZNSt6chrono20__duration_cast_implINS_8durationIdSt5ratioILl1ELl1000EEEES2_ILl1ELl1000000EEdLb1ELb0EE6__castIlS2_ILl1ELl1000000000EEEES4_RKNS1_IT_T0_EE, .-_ZNSt6chrono20__duration_cast_implINS_8durationIdSt5ratioILl1ELl1000EEEES2_ILl1ELl1000000EEdLb1ELb0EE6__castIlS2_ILl1ELl1000000000EEEES4_RKNS1_IT_T0_EE
	.section	.text._ZNSt6chrono8durationIdSt5ratioILl1ELl1000EEEC2IdvEERKT_,"axG",@progbits,_ZNSt6chrono8durationIdSt5ratioILl1ELl1000EEEC5IdvEERKT_,comdat
	.align 2
	.weak	_ZNSt6chrono8durationIdSt5ratioILl1ELl1000EEEC2IdvEERKT_
	.type	_ZNSt6chrono8durationIdSt5ratioILl1ELl1000EEEC2IdvEERKT_, @function
_ZNSt6chrono8durationIdSt5ratioILl1ELl1000EEEC2IdvEERKT_:
.LFB2814:
	.cfi_startproc
	endbr64
	pushq	%rbp
	.cfi_def_cfa_offset 16
	.cfi_offset 6, -16
	movq	%rsp, %rbp
	.cfi_def_cfa_register 6
	movq	%rdi, -8(%rbp)
	movq	%rsi, -16(%rbp)
	movq	-16(%rbp), %rax
	movsd	(%rax), %xmm0
	movq	-8(%rbp), %rax
	movsd	%xmm0, (%rax)
	nop
	popq	%rbp
	.cfi_def_cfa 7, 8
	ret
	.cfi_endproc
.LFE2814:
	.size	_ZNSt6chrono8durationIdSt5ratioILl1ELl1000EEEC2IdvEERKT_, .-_ZNSt6chrono8durationIdSt5ratioILl1ELl1000EEEC2IdvEERKT_
	.weak	_ZNSt6chrono8durationIdSt5ratioILl1ELl1000EEEC1IdvEERKT_
	.set	_ZNSt6chrono8durationIdSt5ratioILl1ELl1000EEEC1IdvEERKT_,_ZNSt6chrono8durationIdSt5ratioILl1ELl1000EEEC2IdvEERKT_
	.section	.rodata
	.type	_ZNSt8__detail30__integer_to_chars_is_unsignedIjEE, @object
	.size	_ZNSt8__detail30__integer_to_chars_is_unsignedIjEE, 1
_ZNSt8__detail30__integer_to_chars_is_unsignedIjEE:
	.byte	1
	.type	_ZNSt8__detail30__integer_to_chars_is_unsignedImEE, @object
	.size	_ZNSt8__detail30__integer_to_chars_is_unsignedImEE, 1
_ZNSt8__detail30__integer_to_chars_is_unsignedImEE:
	.byte	1
	.type	_ZNSt8__detail30__integer_to_chars_is_unsignedIyEE, @object
	.size	_ZNSt8__detail30__integer_to_chars_is_unsignedIyEE, 1
_ZNSt8__detail30__integer_to_chars_is_unsignedIyEE:
	.byte	1
	.type	_ZSt12__is_ratio_vISt5ratioILl1ELl1000000000EEE, @object
	.size	_ZSt12__is_ratio_vISt5ratioILl1ELl1000000000EEE, 1
_ZSt12__is_ratio_vISt5ratioILl1ELl1000000000EEE:
	.byte	1
	.type	_ZSt12__is_ratio_vISt5ratioILl1ELl1EEE, @object
	.size	_ZSt12__is_ratio_vISt5ratioILl1ELl1EEE, 1
_ZSt12__is_ratio_vISt5ratioILl1ELl1EEE:
	.byte	1
	.type	_ZSt12__is_ratio_vISt5ratioILl1000000000ELl1EEE, @object
	.size	_ZSt12__is_ratio_vISt5ratioILl1000000000ELl1EEE, 1
_ZSt12__is_ratio_vISt5ratioILl1000000000ELl1EEE:
	.byte	1
	.type	_ZSt12__is_ratio_vISt5ratioILl1000ELl1EEE, @object
	.size	_ZSt12__is_ratio_vISt5ratioILl1000ELl1EEE, 1
_ZSt12__is_ratio_vISt5ratioILl1000ELl1EEE:
	.byte	1
	.align 8
.LC11:
	.long	0
	.long	1093567616
	.ident	"GCC: (Ubuntu 13.2.0-23ubuntu4) 13.2.0"
	.section	.note.GNU-stack,"",@progbits
	.section	.note.gnu.property,"a"
	.align 8
	.long	1f - 0f
	.long	4f - 1f
	.long	5
0:
	.string	"GNU"
1:
	.align 8
	.long	0xc0000002
	.long	3f - 2f
2:
	.long	0x3
3:
	.align 8
4:
